target datalayout = "e-m:e-p270:32:32-p271:32:32-p272:64:64-i64:64-i128:128-f80:128-n8:16:32:64-S128"
target triple = "x86_64-pc-linux-gnu"

%struct.SurfaceDataRasInfo = type { %struct.SurfaceDataBounds, ptr, i32, i32, i32, i32, ptr, ptr, ptr, ptr, ptr, ptr, i32, %union.anon.0 }
%struct.SurfaceDataBounds = type { i32, i32, i32, i32 }
%union.anon.0 = type { ptr, [56 x i8] }

; Function Attrs: nounwind uwtable
define hidden void @Index8GrayToIndex12GrayConvert(ptr noundef %0, ptr noundef %1, i32 noundef %2, i32 noundef %3, ptr noundef %4, ptr noundef %5, ptr noundef %6, ptr noundef %7) #0 {
  %9 = alloca ptr, align 8
  %10 = alloca ptr, align 8
  %11 = alloca i32, align 4
  %12 = alloca i32, align 4
  %13 = alloca ptr, align 8
  %14 = alloca ptr, align 8
  %15 = alloca ptr, align 8
  %16 = alloca ptr, align 8
  %17 = alloca ptr, align 8
  %18 = alloca ptr, align 8
  %19 = alloca ptr, align 8
  %20 = alloca ptr, align 8
  %21 = alloca i32, align 4
  %22 = alloca i32, align 4
  %23 = alloca i32, align 4
  %24 = alloca i32, align 4
  store ptr %0, ptr %9, align 8
  store ptr %1, ptr %10, align 8
  store i32 %2, ptr %11, align 4
  store i32 %3, ptr %12, align 4
  store ptr %4, ptr %13, align 8
  store ptr %5, ptr %14, align 8
  store ptr %6, ptr %15, align 8
  store ptr %7, ptr %16, align 8
  %25 = load ptr, ptr %13, align 8
  %26 = getelementptr inbounds %struct.SurfaceDataRasInfo, ptr %25, i32 0, i32 6
  %27 = load ptr, ptr %26, align 8
  store ptr %27, ptr %17, align 8
  br label %28

28:                                               ; preds = %8
  %29 = load ptr, ptr %9, align 8
  store ptr %29, ptr %19, align 8
  %30 = load ptr, ptr %10, align 8
  store ptr %30, ptr %20, align 8
  %31 = load ptr, ptr %13, align 8
  %32 = getelementptr inbounds %struct.SurfaceDataRasInfo, ptr %31, i32 0, i32 4
  %33 = load i32, ptr %32, align 8
  store i32 %33, ptr %21, align 4
  %34 = load ptr, ptr %14, align 8
  %35 = getelementptr inbounds %struct.SurfaceDataRasInfo, ptr %34, i32 0, i32 4
  %36 = load i32, ptr %35, align 8
  store i32 %36, ptr %22, align 4
  %37 = load ptr, ptr %14, align 8
  %38 = getelementptr inbounds %struct.SurfaceDataRasInfo, ptr %37, i32 0, i32 11
  %39 = load ptr, ptr %38, align 8
  store ptr %39, ptr %18, align 8
  %40 = load i32, ptr %11, align 4
  %41 = mul i32 %40, 1
  %42 = load i32, ptr %21, align 4
  %43 = sub i32 %42, %41
  store i32 %43, ptr %21, align 4
  %44 = load i32, ptr %11, align 4
  %45 = mul i32 %44, 2
  %46 = load i32, ptr %22, align 4
  %47 = sub i32 %46, %45
  store i32 %47, ptr %22, align 4
  br label %48

48:                                               ; preds = %95, %28
  %49 = load i32, ptr %11, align 4
  store i32 %49, ptr %23, align 4
  br label %50

50:                                               ; preds = %78, %48
  br label %51

51:                                               ; preds = %50
  %52 = load ptr, ptr %17, align 8
  %53 = load ptr, ptr %19, align 8
  %54 = getelementptr inbounds i8, ptr %53, i64 0
  %55 = load i8, ptr %54, align 1
  %56 = zext i8 %55 to i64
  %57 = getelementptr inbounds i32, ptr %52, i64 %56
  %58 = load i32, ptr %57, align 4
  %59 = trunc i32 %58 to i8
  %60 = zext i8 %59 to i32
  store i32 %60, ptr %24, align 4
  %61 = load ptr, ptr %18, align 8
  %62 = load i32, ptr %24, align 4
  %63 = sext i32 %62 to i64
  %64 = getelementptr inbounds i32, ptr %61, i64 %63
  %65 = load i32, ptr %64, align 4
  %66 = trunc i32 %65 to i16
  %67 = load ptr, ptr %20, align 8
  %68 = getelementptr inbounds i16, ptr %67, i64 0
  store i16 %66, ptr %68, align 2
  br label %69

69:                                               ; preds = %51
  %70 = load ptr, ptr %19, align 8
  %71 = ptrtoint ptr %70 to i64
  %72 = add nsw i64 %71, 1
  %73 = inttoptr i64 %72 to ptr
  store ptr %73, ptr %19, align 8
  %74 = load ptr, ptr %20, align 8
  %75 = ptrtoint ptr %74 to i64
  %76 = add nsw i64 %75, 2
  %77 = inttoptr i64 %76 to ptr
  store ptr %77, ptr %20, align 8
  br label %78

78:                                               ; preds = %69
  %79 = load i32, ptr %23, align 4
  %80 = add i32 %79, -1
  store i32 %80, ptr %23, align 4
  %81 = icmp ugt i32 %80, 0
  br i1 %81, label %50, label %82, !llvm.loop !13

82:                                               ; preds = %78
  %83 = load ptr, ptr %19, align 8
  %84 = ptrtoint ptr %83 to i64
  %85 = load i32, ptr %21, align 4
  %86 = sext i32 %85 to i64
  %87 = add nsw i64 %84, %86
  %88 = inttoptr i64 %87 to ptr
  store ptr %88, ptr %19, align 8
  %89 = load ptr, ptr %20, align 8
  %90 = ptrtoint ptr %89 to i64
  %91 = load i32, ptr %22, align 4
  %92 = sext i32 %91 to i64
  %93 = add nsw i64 %90, %92
  %94 = inttoptr i64 %93 to ptr
  store ptr %94, ptr %20, align 8
  br label %95

95:                                               ; preds = %82
  %96 = load i32, ptr %12, align 4
  %97 = add i32 %96, -1
  store i32 %97, ptr %12, align 4
  %98 = icmp ugt i32 %97, 0
  br i1 %98, label %48, label %99, !llvm.loop !14

99:                                               ; preds = %95
  br label %100

100:                                              ; preds = %99
  ret void
}