; Function Attrs: nofree norecurse nosync nounwind memory(readwrite, inaccessiblemem: none) uwtable
define hidden void @Index8GrayToIndex12GrayConvert(ptr noundef %0, ptr noundef %1, i32 noundef %2, i32 noundef %3, ptr nocapture noundef readonly %4, ptr nocapture noundef readonly %5, ptr nocapture readnone %6, ptr nocapture readnone %7) #0 {
  %9 = getelementptr inbounds i8, ptr %4, i64 40
  %10 = load ptr, ptr %9, align 8
  %11 = getelementptr inbounds i8, ptr %4, i64 32
  %12 = load i32, ptr %11, align 8
  %13 = getelementptr inbounds i8, ptr %5, i64 32
  %14 = load i32, ptr %13, align 8
  %15 = getelementptr inbounds i8, ptr %5, i64 80
  %16 = load ptr, ptr %15, align 8
  %17 = sub i32 %12, %2
  %18 = shl i32 %2, 1
  %19 = sub i32 %14, %18
  %20 = sext i32 %17 to i64
  %21 = sext i32 %19 to i64
  br label %22

22:                                               ; preds = %40, %8
  %.025 = phi ptr [ %0, %8 ], [ %42, %40 ]
  %.024 = phi ptr [ %1, %8 ], [ %44, %40 ]
  %.0 = phi i32 [ %3, %8 ], [ %45, %40 ]
  br label %23

23:                                               ; preds = %23, %22
  %.126 = phi ptr [ %.025, %22 ], [ %35, %23 ]
  %.1 = phi ptr [ %.024, %22 ], [ %38, %23 ]
  %.023 = phi i32 [ %2, %22 ], [ %39, %23 ]
  %24 = load i8, ptr %.126, align 1
  %25 = zext i8 %24 to i64
  %26 = getelementptr inbounds i32, ptr %10, i64 %25
  %27 = load i32, ptr %26, align 4
  %28 = and i32 %27, 255
  %29 = zext nneg i32 %28 to i64
  %30 = getelementptr inbounds i32, ptr %16, i64 %29
  %31 = load i32, ptr %30, align 4
  %32 = trunc i32 %31 to i16
  store i16 %32, ptr %.1, align 2
  %33 = ptrtoint ptr %.126 to i64
  %34 = add nsw i64 %33, 1
  %35 = inttoptr i64 %34 to ptr
  %36 = ptrtoint ptr %.1 to i64
  %37 = add nsw i64 %36, 2
  %38 = inttoptr i64 %37 to ptr
  %39 = add i32 %.023, -1
  %.not = icmp eq i32 %39, 0
  br i1 %.not, label %40, label %23, !llvm.loop !13

40:                                               ; preds = %23
  %41 = add nsw i64 %34, %20
  %42 = inttoptr i64 %41 to ptr
  %43 = add nsw i64 %37, %21
  %44 = inttoptr i64 %43 to ptr
  %45 = add i32 %.0, -1
  %.not28 = icmp eq i32 %45, 0
  br i1 %.not28, label %46, label %22, !llvm.loop !14

46:                                               ; preds = %40
  ret void
}